target datalayout = "e-m:e-p270:32:32-p271:32:32-p272:64:64-i64:64-i128:128-f80:128-n8:16:32:64-S128"
target triple = "x86_64-pc-linux-gnu"

%struct.tcg_region_state = type { %struct.QemuMutex, ptr, ptr, i64, i64, i64, i64, i64, i64 }
%struct.QemuMutex = type { %union.pthread_mutex_t, i8 }
%union.pthread_mutex_t = type { %struct.__pthread_mutex_s }
%struct.__pthread_mutex_s = type { i32, i32, i32, i32, i32, i16, i16, %struct.__pthread_internal_list }
%struct.__pthread_internal_list = type { ptr, ptr }
%struct.TCGContext = type { ptr, ptr, ptr, ptr, ptr, i32, i32, i32, i32, i32, i32, i32, i8, i8, i8, i32, i32, i64, i64, i64, ptr, ptr, ptr, ptr, ptr, i64, ptr, ptr, ptr, ptr, %struct.anon, ptr, ptr, ptr, ptr, ptr, [6 x ptr], [6 x %struct.TCGTempSet], [512 x %struct.TCGTemp], %union.anon, %union.anon, %struct.anon.0, ptr, [32 x ptr], [512 x i16], ptr, [1 x %struct.__jmp_buf_tag] }
%struct.anon = type { ptr, ptr }
%struct.TCGTempSet = type { [8 x i64] }
%struct.TCGTemp = type { i64, i64, ptr, i64, ptr, i64, ptr }
%union.anon = type { %struct.QTailQLink }
%struct.QTailQLink = type { ptr, ptr }
%struct.anon.0 = type { ptr, ptr }
%struct.__jmp_buf_tag = type { [8 x i64], i32, %struct.__sigset_t }
%struct.__sigset_t = type { [16 x i64] }

@region = internal global %struct.tcg_region_state zeroinitializer, align 8
@.str = private unnamed_addr constant [21 x i8] c"../qemu/tcg/region.c\00", align 1
@qemu_mutex_lock_func = external global ptr, align 8
@tcg_cur_ctxs = external global i32, align 4
@tcg_ctxs = external global ptr, align 8
@__func__.tcg_code_size = private unnamed_addr constant [14 x i8] c"tcg_code_size\00", align 1
@.str.6 = private unnamed_addr constant [32 x i8] c"size <= s->code_gen_buffer_size\00", align 1

; Function Attrs: nounwind sspstrong uwtable
define dso_local i64 @tcg_code_size() #0 {
  %1 = alloca i32, align 4
  %2 = alloca i32, align 4
  %3 = alloca i32, align 4
  %4 = alloca i32, align 4
  %5 = alloca i64, align 8
  %6 = alloca ptr, align 8
  %7 = alloca ptr, align 8
  %8 = alloca ptr, align 8
  %9 = alloca ptr, align 8
  %10 = alloca ptr, align 8
  %11 = alloca ptr, align 8
  %12 = alloca i64, align 8
  %13 = alloca ptr, align 8
  %14 = alloca ptr, align 8
  %15 = alloca i32, align 4
  %16 = alloca i32, align 4
  call void @llvm.lifetime.start.p0(i64 4, ptr %1) #11
  br label %17

17:                                               ; preds = %0
  br i1 false, label %18, label %19

18:                                               ; preds = %17
  call void @qemu_build_not_reached_always() #12, !srcloc !25
  unreachable

19:                                               ; preds = %17
  %20 = load atomic i32, ptr @tcg_cur_ctxs monotonic, align 4
  store i32 %20, ptr %3, align 4
  %21 = load i32, ptr %3, align 4
  store i32 %21, ptr %2, align 4
  %22 = load i32, ptr %2, align 4
  store i32 %22, ptr %1, align 4
  call void @llvm.lifetime.start.p0(i64 4, ptr %4) #11
  store i32 0, ptr %4, align 4, !annotation !4
  call void @llvm.lifetime.start.p0(i64 8, ptr %5) #11
  store i64 0, ptr %5, align 8, !annotation !4
  call void @llvm.lifetime.start.p0(i64 8, ptr %6) #11
  br label %23

23:                                               ; preds = %19
  br i1 false, label %24, label %25

24:                                               ; preds = %23
  call void @qemu_build_not_reached_always() #12, !srcloc !26
  unreachable

25:                                               ; preds = %23
  %26 = load atomic i64, ptr @qemu_mutex_lock_func monotonic, align 8
  store i64 %26, ptr %8, align 8
  %27 = load ptr, ptr %8, align 8
  store ptr %27, ptr %7, align 8
  %28 = load ptr, ptr %7, align 8
  store ptr %28, ptr %6, align 8
  %29 = load ptr, ptr %6, align 8
  call void %29(ptr noundef @region, ptr noundef @.str, i32 noundef 891)
  call void @llvm.lifetime.end.p0(i64 8, ptr %6) #11
  %30 = load i64, ptr getelementptr inbounds nuw (%struct.tcg_region_state, ptr @region, i32 0, i32 8), align 8
  store i64 %30, ptr %5, align 8
  store i32 0, ptr %4, align 4
  br label %31

31:                                               ; preds = %82, %25
  %32 = load i32, ptr %4, align 4
  %33 = load i32, ptr %1, align 4
  %34 = icmp ult i32 %32, %33
  br i1 %34, label %35, label %85

35:                                               ; preds = %31
  call void @llvm.lifetime.start.p0(i64 8, ptr %9) #11
  br label %36

36:                                               ; preds = %35
  br i1 false, label %37, label %38

37:                                               ; preds = %36
  call void @qemu_build_not_reached_always() #12, !srcloc !27
  unreachable

38:                                               ; preds = %36
  %39 = load ptr, ptr @tcg_ctxs, align 8
  %40 = load i32, ptr %4, align 4
  %41 = zext i32 %40 to i64
  %42 = getelementptr inbounds nuw ptr, ptr %39, i64 %41
  %43 = load atomic i64, ptr %42 monotonic, align 8
  store i64 %43, ptr %11, align 8
  %44 = load ptr, ptr %11, align 8
  store ptr %44, ptr %10, align 8
  %45 = load ptr, ptr %10, align 8
  store ptr %45, ptr %9, align 8
  call void @llvm.lifetime.start.p0(i64 8, ptr %12) #11
  store i64 0, ptr %12, align 8, !annotation !4
  br label %46

46:                                               ; preds = %38
  br i1 false, label %47, label %48

47:                                               ; preds = %46
  call void @qemu_build_not_reached_always() #12, !srcloc !28
  unreachable

48:                                               ; preds = %46
  %49 = load ptr, ptr %9, align 8
  %50 = getelementptr inbounds nuw %struct.TCGContext, ptr %49, i32 0, i32 26
  %51 = load atomic i64, ptr %50 monotonic, align 8
  store i64 %51, ptr %14, align 8
  %52 = load ptr, ptr %14, align 8
  store ptr %52, ptr %13, align 8
  %53 = load ptr, ptr %13, align 8
  %54 = load ptr, ptr %9, align 8
  %55 = getelementptr inbounds nuw %struct.TCGContext, ptr %54, i32 0, i32 24
  %56 = load ptr, ptr %55, align 8
  %57 = ptrtoint ptr %53 to i64
  %58 = ptrtoint ptr %56 to i64
  %59 = sub i64 %57, %58
  store i64 %59, ptr %12, align 8
  br label %60

60:                                               ; preds = %48
  call void @llvm.lifetime.start.p0(i64 4, ptr %15) #11
  store i32 0, ptr %15, align 4, !annotation !4
  %61 = load i64, ptr %12, align 8
  %62 = load ptr, ptr %9, align 8
  %63 = getelementptr inbounds nuw %struct.TCGContext, ptr %62, i32 0, i32 25
  %64 = load i64, ptr %63, align 8
  %65 = icmp ule i64 %61, %64
  br i1 %65, label %66, label %67

66:                                               ; preds = %60
  store i32 1, ptr %15, align 4
  br label %68

67:                                               ; preds = %60
  store i32 0, ptr %15, align 4
  br label %68

68:                                               ; preds = %67, %66
  %69 = load i32, ptr %15, align 4
  store i32 %69, ptr %16, align 4
  call void @llvm.lifetime.end.p0(i64 4, ptr %15) #11
  %70 = load i32, ptr %16, align 4
  %71 = sext i32 %70 to i64
  %72 = call i64 @llvm.expect.i64(i64 %71, i64 1)
  %73 = icmp ne i64 %72, 0
  br i1 %73, label %74, label %75

74:                                               ; preds = %68
  br label %76

75:                                               ; preds = %68
  call void @g_assertion_message_expr(ptr noundef null, ptr noundef @.str, i32 noundef 898, ptr noundef @__func__.tcg_code_size, ptr noundef @.str.6) #12
  unreachable

76:                                               ; preds = %74
  br label %77

77:                                               ; preds = %76
  br label %78

78:                                               ; preds = %77
  %79 = load i64, ptr %12, align 8
  %80 = load i64, ptr %5, align 8
  %81 = add i64 %80, %79
  store i64 %81, ptr %5, align 8
  call void @llvm.lifetime.end.p0(i64 8, ptr %12) #11
  call void @llvm.lifetime.end.p0(i64 8, ptr %9) #11
  br label %82

82:                                               ; preds = %78
  %83 = load i32, ptr %4, align 4
  %84 = add i32 %83, 1
  store i32 %84, ptr %4, align 4
  br label %31, !llvm.loop !29

85:                                               ; preds = %31
  call void @qemu_mutex_unlock_impl(ptr noundef @region, ptr noundef @.str, i32 noundef 901)
  %86 = load i64, ptr %5, align 8
  call void @llvm.lifetime.end.p0(i64 8, ptr %5) #11
  call void @llvm.lifetime.end.p0(i64 4, ptr %4) #11
  call void @llvm.lifetime.end.p0(i64 4, ptr %1) #11
  ret i64 %86
}