; Function Attrs: nounwind sspstrong uwtable
define dso_local i64 @tcg_code_size() local_unnamed_addr #1 {
  %1 = load atomic i32, ptr @tcg_cur_ctxs monotonic, align 4
  %2 = load atomic i64, ptr @qemu_mutex_lock_func monotonic, align 8
  %3 = inttoptr i64 %2 to ptr
  tail call void %3(ptr noundef nonnull @region, ptr noundef nonnull @.str, i32 noundef 891) #12
  %4 = load i64, ptr getelementptr inbounds nuw (i8, ptr @region, i64 104), align 8
  %.not27 = icmp eq i32 %1, 0
  br i1 %.not27, label %._crit_edge, label %.lr.ph

.lr.ph:                                           ; preds = %0
  %5 = load ptr, ptr @tcg_ctxs, align 8
  %wide.trip.count = zext i32 %1 to i64
  br label %6

6:                                                ; preds = %.lr.ph, %19
  %indvars.iv = phi i64 [ 0, %.lr.ph ], [ %indvars.iv.next, %19 ]
  %.02225 = phi i64 [ %4, %.lr.ph ], [ %20, %19 ]
  %7 = getelementptr inbounds nuw ptr, ptr %5, i64 %indvars.iv
  %8 = load atomic i64, ptr %7 monotonic, align 8
  %9 = inttoptr i64 %8 to ptr
  %10 = getelementptr inbounds nuw i8, ptr %9, i64 152
  %11 = load atomic i64, ptr %10 monotonic, align 8
  %12 = getelementptr inbounds nuw i8, ptr %9, i64 136
  %13 = load ptr, ptr %12, align 8
  %14 = ptrtoint ptr %13 to i64
  %15 = sub i64 %11, %14
  %16 = getelementptr inbounds nuw i8, ptr %9, i64 144
  %17 = load i64, ptr %16, align 8
  %.not = icmp ugt i64 %15, %17
  br i1 %.not, label %18, label %19, !prof !14

18:                                               ; preds = %6
  tail call void @g_assertion_message_expr(ptr noundef null, ptr noundef nonnull @.str, i32 noundef 898, ptr noundef nonnull @__func__.tcg_code_size, ptr noundef nonnull @.str.6) #11
  unreachable

19:                                               ; preds = %6
  %20 = add i64 %15, %.02225
  %indvars.iv.next = add nuw nsw i64 %indvars.iv, 1
  %exitcond.not = icmp eq i64 %indvars.iv.next, %wide.trip.count
  br i1 %exitcond.not, label %._crit_edge, label %6, !llvm.loop !18

._crit_edge:                                      ; preds = %19, %0
  %.022.lcssa = phi i64 [ %4, %0 ], [ %20, %19 ]
  tail call void @qemu_mutex_unlock_impl(ptr noundef nonnull @region, ptr noundef nonnull @.str, i32 noundef 901) #12
  ret i64 %.022.lcssa
}